target datalayout = "e-m:e-p270:32:32-p271:32:32-p272:64:64-i64:64-i128:128-f80:128-n8:16:32:64-S128"
target triple = "x86_64-pc-linux-gnu"

%struct.trav_attr_udata_t = type { ptr, ptr }

@.str.15 = private unnamed_addr constant [2 x i8] c"/\00", align 1
@.str.59 = private unnamed_addr constant [3 x i8] c"\\/\00", align 1

; Function Attrs: nounwind uwtable
define internal i32 @attr_search(i64 noundef %0, ptr noundef %1, ptr noundef %2, ptr noundef %3) #0 {
  %5 = alloca i64, align 8
  %6 = alloca ptr, align 8
  %7 = alloca ptr, align 8
  %8 = alloca ptr, align 8
  %9 = alloca i32, align 4
  %10 = alloca i32, align 4
  %11 = alloca ptr, align 8
  %12 = alloca ptr, align 8
  %13 = alloca ptr, align 8
  %14 = alloca ptr, align 8
  %15 = alloca ptr, align 8
  %16 = alloca i64, align 8
  %17 = alloca i64, align 8
  %18 = alloca i64, align 8
  %19 = alloca i64, align 8
  store i64 %0, ptr %5, align 8, !tbaa !4
  store ptr %1, ptr %6, align 8, !tbaa !22
  store ptr %2, ptr %7, align 8, !tbaa !24
  store ptr %3, ptr %8, align 8, !tbaa !24
  call void @llvm.lifetime.start.p0(i64 4, ptr %9) #10
  store i32 0, ptr %9, align 4, !tbaa !11
  call void @llvm.lifetime.start.p0(i64 4, ptr %10) #10
  call void @llvm.lifetime.start.p0(i64 8, ptr %11) #10
  call void @llvm.lifetime.start.p0(i64 8, ptr %12) #10
  call void @llvm.lifetime.start.p0(i64 8, ptr %13) #10
  %20 = load ptr, ptr %8, align 8, !tbaa !24
  store ptr %20, ptr %13, align 8, !tbaa !24
  call void @llvm.lifetime.start.p0(i64 8, ptr %14) #10
  %21 = load ptr, ptr %13, align 8, !tbaa !24
  %22 = getelementptr inbounds nuw %struct.trav_attr_udata_t, ptr %21, i32 0, i32 0
  %23 = load ptr, ptr %22, align 8, !tbaa !124
  store ptr %23, ptr %14, align 8, !tbaa !22
  call void @llvm.lifetime.start.p0(i64 8, ptr %15) #10
  %24 = load ptr, ptr %13, align 8, !tbaa !24
  %25 = getelementptr inbounds nuw %struct.trav_attr_udata_t, ptr %24, i32 0, i32 1
  %26 = load ptr, ptr %25, align 8, !tbaa !126
  store ptr %26, ptr %15, align 8, !tbaa !22
  %27 = load ptr, ptr %15, align 8, !tbaa !22
  %28 = call i64 @strlen(ptr noundef %27) #11
  %29 = trunc i64 %28 to i32
  %30 = sub nsw i32 %29, 1
  store i32 %30, ptr %10, align 4, !tbaa !11
  br label %31

31:                                               ; preds = %55, %4
  %32 = load i32, ptr %10, align 4, !tbaa !11
  %33 = icmp sge i32 %32, 0
  br i1 %33, label %34, label %58

34:                                               ; preds = %31
  %35 = load ptr, ptr %15, align 8, !tbaa !22
  %36 = load i32, ptr %10, align 4, !tbaa !11
  %37 = sext i32 %36 to i64
  %38 = getelementptr inbounds i8, ptr %35, i64 %37
  %39 = load i8, ptr %38, align 1, !tbaa !77
  %40 = sext i8 %39 to i32
  %41 = icmp eq i32 %40, 47
  br i1 %41, label %42, label %55

42:                                               ; preds = %34
  %43 = load i32, ptr %10, align 4, !tbaa !11
  %44 = icmp eq i32 %43, 0
  br i1 %44, label %54, label %45

45:                                               ; preds = %42
  %46 = load ptr, ptr %15, align 8, !tbaa !22
  %47 = load i32, ptr %10, align 4, !tbaa !11
  %48 = sub nsw i32 %47, 1
  %49 = sext i32 %48 to i64
  %50 = getelementptr inbounds i8, ptr %46, i64 %49
  %51 = load i8, ptr %50, align 1, !tbaa !77
  %52 = sext i8 %51 to i32
  %53 = icmp ne i32 %52, 92
  br i1 %53, label %54, label %55

54:                                               ; preds = %45, %42
  br label %58

55:                                               ; preds = %45, %34
  %56 = load i32, ptr %10, align 4, !tbaa !11
  %57 = add nsw i32 %56, -1
  store i32 %57, ptr %10, align 4, !tbaa !11
  br label %31, !llvm.loop !155

58:                                               ; preds = %54, %31
  %59 = load ptr, ptr %15, align 8, !tbaa !22
  %60 = load i32, ptr %10, align 4, !tbaa !11
  %61 = sext i32 %60 to i64
  %62 = getelementptr inbounds i8, ptr %59, i64 %61
  %63 = getelementptr inbounds i8, ptr %62, i64 1
  %64 = call ptr @h5tools_str_replace(ptr noundef %63, ptr noundef @.str.59, ptr noundef @.str.15)
  store ptr %64, ptr %11, align 8, !tbaa !22
  %65 = load ptr, ptr %11, align 8, !tbaa !22
  %66 = icmp eq ptr %65, null
  br i1 %66, label %67, label %68

67:                                               ; preds = %58
  call void @h5tools_setstatus(i32 noundef 1)
  store i32 -1, ptr %9, align 4, !tbaa !11
  br label %158

68:                                               ; preds = %58
  %69 = load ptr, ptr %6, align 8, !tbaa !22
  %70 = load ptr, ptr %11, align 8, !tbaa !22
  %71 = call i32 @strcmp(ptr noundef %69, ptr noundef %70) #11
  %72 = icmp eq i32 %71, 0
  br i1 %72, label %73, label %156

73:                                               ; preds = %68
  call void @llvm.lifetime.start.p0(i64 8, ptr %16) #10
  call void @llvm.lifetime.start.p0(i64 8, ptr %17) #10
  call void @llvm.lifetime.start.p0(i64 8, ptr %18) #10
  %74 = load ptr, ptr %14, align 8, !tbaa !22
  %75 = call i64 @strlen(ptr noundef %74) #11
  store i64 %75, ptr %16, align 8, !tbaa !4
  %76 = load ptr, ptr %15, align 8, !tbaa !22
  %77 = call i64 @strlen(ptr noundef %76) #11
  store i64 %77, ptr %17, align 8, !tbaa !4
  %78 = load i64, ptr %16, align 8, !tbaa !4
  %79 = add i64 %78, 1
  %80 = load i64, ptr %17, align 8, !tbaa !4
  %81 = add i64 %79, %80
  %82 = add i64 %81, 1
  %83 = add i64 %82, 2
  store i64 %83, ptr %18, align 8, !tbaa !4
  %84 = load i64, ptr %18, align 8, !tbaa !4
  %85 = call noalias ptr @malloc(i64 noundef %84) #12
  store ptr %85, ptr %12, align 8, !tbaa !22
  %86 = load ptr, ptr %12, align 8, !tbaa !22
  %87 = icmp eq ptr %86, null
  br i1 %87, label %88, label %89

88:                                               ; preds = %73
  call void @h5tools_setstatus(i32 noundef 1)
  store i32 -1, ptr %9, align 4, !tbaa !11
  br label %155

89:                                               ; preds = %73
  call void @llvm.lifetime.start.p0(i64 8, ptr %19) #10
  %90 = load i64, ptr %18, align 8, !tbaa !4
  %91 = sub i64 %90, 1
  store i64 %91, ptr %19, align 8, !tbaa !4
  %92 = load ptr, ptr %12, align 8, !tbaa !22
  %93 = load i64, ptr %18, align 8, !tbaa !4
  call void @llvm.memset.p0.i64(ptr align 1 %92, i8 0, i64 %93, i1 false)
  %94 = load ptr, ptr %15, align 8, !tbaa !22
  %95 = getelementptr inbounds i8, ptr %94, i64 0
  %96 = load i8, ptr %95, align 1, !tbaa !77
  %97 = sext i8 %96 to i32
  %98 = icmp ne i32 %97, 47
  br i1 %98, label %99, label %136

99:                                               ; preds = %89
  %100 = load ptr, ptr %12, align 8, !tbaa !22
  %101 = load ptr, ptr %14, align 8, !tbaa !22
  %102 = load i64, ptr %19, align 8, !tbaa !4
  %103 = call ptr @strncat(ptr noundef %100, ptr noundef %101, i64 noundef %102) #10
  %104 = load i64, ptr %19, align 8, !tbaa !4
  %105 = load i64, ptr %16, align 8, !tbaa !4
  %106 = icmp ult i64 %104, %105
  br i1 %106, label %107, label %109

107:                                              ; preds = %99
  %108 = load i64, ptr %19, align 8, !tbaa !4
  br label %111

109:                                              ; preds = %99
  %110 = load i64, ptr %16, align 8, !tbaa !4
  br label %111

111:                                              ; preds = %109, %107
  %112 = phi i64 [ %108, %107 ], [ %110, %109 ]
  %113 = load i64, ptr %19, align 8, !tbaa !4
  %114 = sub i64 %113, %112
  store i64 %114, ptr %19, align 8, !tbaa !4
  %115 = load ptr, ptr %14, align 8, !tbaa !22
  %116 = load i64, ptr %16, align 8, !tbaa !4
  %117 = sub i64 %116, 1
  %118 = getelementptr inbounds nuw i8, ptr %115, i64 %117
  %119 = load i8, ptr %118, align 1, !tbaa !77
  %120 = sext i8 %119 to i32
  %121 = icmp ne i32 %120, 47
  br i1 %121, label %122, label %135

122:                                              ; preds = %111
  %123 = load ptr, ptr %12, align 8, !tbaa !22
  %124 = load i64, ptr %19, align 8, !tbaa !4
  %125 = call ptr @strncat(ptr noundef %123, ptr noundef @.str.15, i64 noundef %124) #10
  %126 = load i64, ptr %19, align 8, !tbaa !4
  %127 = icmp ult i64 %126, 2
  br i1 %127, label %128, label %130

128:                                              ; preds = %122
  %129 = load i64, ptr %19, align 8, !tbaa !4
  br label %131

130:                                              ; preds = %122
  br label %131

131:                                              ; preds = %130, %128
  %132 = phi i64 [ %129, %128 ], [ 2, %130 ]
  %133 = load i64, ptr %19, align 8, !tbaa !4
  %134 = sub i64 %133, %132
  store i64 %134, ptr %19, align 8, !tbaa !4
  br label %135

135:                                              ; preds = %131, %111
  br label %136

136:                                              ; preds = %135, %89
  %137 = load ptr, ptr %12, align 8, !tbaa !22
  %138 = load ptr, ptr %15, align 8, !tbaa !22
  %139 = load i64, ptr %19, align 8, !tbaa !4
  %140 = call ptr @strncat(ptr noundef %137, ptr noundef %138, i64 noundef %139) #10
  %141 = load i64, ptr %19, align 8, !tbaa !4
  %142 = load i64, ptr %17, align 8, !tbaa !4
  %143 = icmp ult i64 %141, %142
  br i1 %143, label %144, label %146

144:                                              ; preds = %136
  %145 = load i64, ptr %19, align 8, !tbaa !4
  br label %148

146:                                              ; preds = %136
  %147 = load i64, ptr %17, align 8, !tbaa !4
  br label %148

148:                                              ; preds = %146, %144
  %149 = phi i64 [ %145, %144 ], [ %147, %146 ]
  %150 = load i64, ptr %19, align 8, !tbaa !4
  %151 = sub i64 %150, %149
  store i64 %151, ptr %19, align 8, !tbaa !4
  %152 = load i64, ptr %5, align 8, !tbaa !4
  %153 = load ptr, ptr %12, align 8, !tbaa !22
  call void @handle_attributes(i64 noundef %152, ptr noundef %153, ptr noundef null, i32 noundef 0, ptr noundef null)
  %154 = load ptr, ptr %12, align 8, !tbaa !22
  call void @free(ptr noundef %154) #10
  call void @llvm.lifetime.end.p0(i64 8, ptr %19) #10
  br label %155

155:                                              ; preds = %148, %88
  call void @llvm.lifetime.end.p0(i64 8, ptr %18) #10
  call void @llvm.lifetime.end.p0(i64 8, ptr %17) #10
  call void @llvm.lifetime.end.p0(i64 8, ptr %16) #10
  br label %156

156:                                              ; preds = %155, %68
  %157 = load ptr, ptr %11, align 8, !tbaa !22
  call void @free(ptr noundef %157) #10
  br label %158

158:                                              ; preds = %156, %67
  %159 = load i32, ptr %9, align 4, !tbaa !11
  call void @llvm.lifetime.end.p0(i64 8, ptr %15) #10
  call void @llvm.lifetime.end.p0(i64 8, ptr %14) #10
  call void @llvm.lifetime.end.p0(i64 8, ptr %13) #10
  call void @llvm.lifetime.end.p0(i64 8, ptr %12) #10
  call void @llvm.lifetime.end.p0(i64 8, ptr %11) #10
  call void @llvm.lifetime.end.p0(i64 4, ptr %10) #10
  call void @llvm.lifetime.end.p0(i64 4, ptr %9) #10
  ret i32 %159
}