; Function Attrs: nounwind uwtable
define internal range(i32 -1, 1) i32 @attr_search(i64 noundef %0, ptr noundef readonly captures(none) %1, ptr readnone captures(none) %2, ptr noundef readonly captures(none) %3) #0 {
  %5 = load ptr, ptr %3, align 8, !tbaa !124
  %6 = getelementptr inbounds nuw i8, ptr %3, i64 8
  %7 = load ptr, ptr %6, align 8, !tbaa !126
  %8 = tail call i64 @strlen(ptr noundef nonnull dereferenceable(1) %7) #17
  %9 = trunc i64 %8 to i32
  %invariant.gep = getelementptr i8, ptr %7, i64 -2
  %.05459 = add i32 %9, -1
  %10 = icmp sgt i32 %9, 0
  br i1 %10, label %.lr.ph.preheader, label %._crit_edge

.lr.ph.preheader:                                 ; preds = %4
  %11 = zext nneg i32 %.05459 to i64
  %12 = and i64 %8, 2147483647
  br label %.lr.ph

.lr.ph:                                           ; preds = %.lr.ph.preheader, %20
  %indvars.iv66 = phi i64 [ %12, %.lr.ph.preheader ], [ %indvars.iv.next67, %20 ]
  %indvars.iv = phi i64 [ %11, %.lr.ph.preheader ], [ %indvars.iv.next, %20 ]
  %13 = getelementptr inbounds nuw i8, ptr %7, i64 %indvars.iv
  %14 = load i8, ptr %13, align 1, !tbaa !72
  %15 = icmp eq i8 %14, 47
  br i1 %15, label %16, label %20

16:                                               ; preds = %.lr.ph
  %17 = icmp eq i64 %indvars.iv, 0
  br i1 %17, label %._crit_edge, label %18

18:                                               ; preds = %16
  %gep = getelementptr i8, ptr %invariant.gep, i64 %indvars.iv66
  %19 = load i8, ptr %gep, align 1, !tbaa !72
  %.not = icmp eq i8 %19, 92
  br i1 %.not, label %20, label %._crit_edge.loopexit.split.loop.exit71

20:                                               ; preds = %18, %.lr.ph
  %indvars.iv.next = add nsw i64 %indvars.iv, -1
  %21 = icmp sgt i64 %indvars.iv, 0
  %indvars.iv.next67 = add nsw i64 %indvars.iv66, -1
  br i1 %21, label %.lr.ph, label %._crit_edge, !llvm.loop !148

._crit_edge.loopexit.split.loop.exit71:           ; preds = %18
  %22 = trunc nuw nsw i64 %indvars.iv to i32
  br label %._crit_edge

._crit_edge:                                      ; preds = %16, %20, %._crit_edge.loopexit.split.loop.exit71, %4
  %.054.lcssa = phi i32 [ %.05459, %4 ], [ %22, %._crit_edge.loopexit.split.loop.exit71 ], [ 0, %16 ], [ -1, %20 ]
  %23 = sext i32 %.054.lcssa to i64
  %24 = getelementptr inbounds i8, ptr %7, i64 %23
  %25 = getelementptr inbounds nuw i8, ptr %24, i64 1
  %26 = tail call ptr @h5tools_str_replace(ptr noundef nonnull %25, ptr noundef nonnull @.str.59, ptr noundef nonnull @.str.15) #15
  %27 = icmp eq ptr %26, null
  br i1 %27, label %28, label %29

28:                                               ; preds = %._crit_edge
  tail call void @h5tools_setstatus(i32 noundef 1) #15
  br label %55

29:                                               ; preds = %._crit_edge
  %30 = tail call i32 @strcmp(ptr noundef nonnull dereferenceable(1) %1, ptr noundef nonnull dereferenceable(1) %26) #17
  %31 = icmp eq i32 %30, 0
  br i1 %31, label %32, label %54

32:                                               ; preds = %29
  %33 = tail call i64 @strlen(ptr noundef nonnull dereferenceable(1) %5) #17
  %34 = tail call i64 @strlen(ptr noundef nonnull dereferenceable(1) %7) #17
  %35 = add i64 %33, 1
  %36 = add i64 %35, %34
  %37 = add i64 %36, 3
  %calloc = tail call ptr @calloc(i64 1, i64 %37)
  %38 = icmp eq ptr %calloc, null
  br i1 %38, label %39, label %40

39:                                               ; preds = %32
  tail call void @h5tools_setstatus(i32 noundef 1) #15
  br label %54

40:                                               ; preds = %32
  %41 = add i64 %36, 2
  %42 = load i8, ptr %7, align 1, !tbaa !72
  %.not57 = icmp eq i8 %42, 47
  br i1 %.not57, label %52, label %43

43:                                               ; preds = %40
  %44 = tail call ptr @strncat(ptr noundef nonnull dereferenceable(1) %calloc, ptr noundef nonnull %5, i64 noundef %41) #15
  %45 = tail call i64 @llvm.usub.sat.i64(i64 %41, i64 %33)
  %46 = getelementptr i8, ptr %5, i64 %33
  %47 = getelementptr i8, ptr %46, i64 -1
  %48 = load i8, ptr %47, align 1, !tbaa !72
  %.not58 = icmp eq i8 %48, 47
  br i1 %.not58, label %52, label %49

49:                                               ; preds = %43
  %50 = tail call ptr @strncat(ptr noundef nonnull dereferenceable(1) %calloc, ptr noundef nonnull @.str.15, i64 noundef %45) #15
  %51 = tail call i64 @llvm.usub.sat.i64(i64 %45, i64 2)
  br label %52

52:                                               ; preds = %43, %49, %40
  %.0 = phi i64 [ %51, %49 ], [ %45, %43 ], [ %41, %40 ]
  %53 = tail call ptr @strncat(ptr noundef nonnull dereferenceable(1) %calloc, ptr noundef nonnull %7, i64 noundef %.0) #15
  tail call void @handle_attributes(i64 noundef %0, ptr noundef nonnull %calloc, ptr poison, i32 poison, ptr poison)
  tail call void @free(ptr noundef nonnull %calloc) #15
  br label %54

54:                                               ; preds = %39, %52, %29
  %.1 = phi i32 [ 0, %29 ], [ -1, %39 ], [ 0, %52 ]
  tail call void @free(ptr noundef nonnull %26) #15
  br label %55

55:                                               ; preds = %54, %28
  %.053 = phi i32 [ -1, %28 ], [ %.1, %54 ]
  ret i32 %.053
}